; Function Attrs: nounwind ssp uwtable
define dso_local i32 @crypto_box_curve25519xchacha20poly1305_seed_keypair(ptr noundef nonnull %0, ptr noundef nonnull %1, ptr noundef nonnull %2) local_unnamed_addr #0 {
  %4 = alloca [64 x i8], align 16
  call void @llvm.lifetime.start.p0(i64 64, ptr nonnull %4) #6
  %5 = call i32 @crypto_hash_sha512(ptr noundef nonnull %4, ptr noundef nonnull %2, i64 noundef 32) #6
  call void @llvm.memcpy.p0.p0.i64(ptr noundef nonnull align 1 dereferenceable(32) %1, ptr noundef nonnull align 16 dereferenceable(32) %4, i64 noundef 32, i1 noundef false) #6
  call void @sodium_memzero(ptr noundef nonnull %4, i64 noundef 64) #6
  %6 = call i32 @crypto_scalarmult_curve25519_base(ptr noundef nonnull %0, ptr noundef nonnull %1) #6
  call void @llvm.lifetime.end.p0(i64 64, ptr nonnull %4) #6
  ret i32 %6
}